; Function Attrs: nounwind uwtable
define dso_local void @cr_free(ptr nocapture noundef readonly %0) local_unnamed_addr #5 {
  %2 = getelementptr inbounds i8, ptr %0, i64 24
  %3 = load ptr, ptr %2, align 8
  %4 = getelementptr inbounds i8, ptr %0, i64 16
  %5 = load ptr, ptr %4, align 8
  %6 = getelementptr inbounds i8, ptr %0, i64 8
  %7 = load ptr, ptr %6, align 8
  %8 = tail call ptr %3(ptr noundef %5, ptr noundef %7, i64 noundef 0) #20
  ret void
}